target datalayout = "e-m:e-p270:32:32-p271:32:32-p272:64:64-i64:64-i128:128-f80:128-n8:16:32:64-S128"
target triple = "x86_64-pc-linux-gnu"

%"class.llvm::StringRef" = type { ptr, i64 }
%class.anon.352 = type { ptr, ptr, ptr }

@.str.442 = private unnamed_addr constant [3 x i8] c"di\00", align 1
@.str.443 = private unnamed_addr constant [5 x i8] c"ouxX\00", align 1
@.str.444 = private unnamed_addr constant [3 x i8] c"bB\00", align 1

; Function Attrs: mustprogress nounwind uwtable
define linkonce_odr hidden noundef i64 @_ZNSt11char_traitsIcE6lengthEPKc(ptr noundef %0) #0 comdat align 2 {
  %2 = alloca ptr, align 8
  store ptr %0, ptr %2, align 8
  %3 = load ptr, ptr %2, align 8
  %4 = call i64 @strlen(ptr noundef %3) #10
  ret i64 %4
}

; Function Attrs: mustprogress nounwind uwtable
define linkonce_odr hidden void @_ZN4llvm9StringRefC2EPKc(ptr noundef nonnull align 8 dereferenceable(16) %0, ptr noundef %1) unnamed_addr #0 comdat align 2 {
  %3 = alloca ptr, align 8
  %4 = alloca ptr, align 8
  store ptr %0, ptr %3, align 8
  store ptr %1, ptr %4, align 8
  %5 = load ptr, ptr %3, align 8
  %6 = getelementptr inbounds nuw %"class.llvm::StringRef", ptr %5, i32 0, i32 0
  %7 = load ptr, ptr %4, align 8
  store ptr %7, ptr %6, align 8
  %8 = getelementptr inbounds nuw %"class.llvm::StringRef", ptr %5, i32 0, i32 1
  %9 = load ptr, ptr %4, align 8
  %10 = icmp ne ptr %9, null
  br i1 %10, label %11, label %14

11:                                               ; preds = %2
  %12 = load ptr, ptr %4, align 8
  %13 = call noundef i64 @_ZNSt11char_traitsIcE6lengthEPKc(ptr noundef %12)
  br label %15

14:                                               ; preds = %2
  br label %15

15:                                               ; preds = %14, %11
  %16 = phi i64 [ %13, %11 ], [ 0, %14 ]
  store i64 %16, ptr %8, align 8
  ret void
}

; Function Attrs: mustprogress nounwind uwtable
define internal void @_ZL9DefineFmtRKN5clang11LangOptionsERKN4llvm5TwineENS_23TransferrableTargetInfo7IntTypeERKNS_10TargetInfoERNS_12MacroBuilderE(ptr noundef nonnull align 8 dereferenceable(841) %0, ptr noundef nonnull align 8 dereferenceable(34) %1, i32 noundef %2, ptr noundef nonnull align 8 dereferenceable(489) %3, ptr noundef nonnull align 8 dereferenceable(8) %4) #0 {
  %6 = alloca ptr, align 8
  %7 = alloca ptr, align 8
  %8 = alloca i32, align 4
  %9 = alloca ptr, align 8
  %10 = alloca ptr, align 8
  %11 = alloca %"class.llvm::StringRef", align 8
  %12 = alloca %class.anon.352, align 8
  %13 = alloca i8, align 1
  %14 = alloca %"class.llvm::StringRef", align 8
  %15 = alloca %class.anon.352, align 8
  %16 = alloca %class.anon.352, align 8
  %17 = alloca %"class.llvm::StringRef", align 8
  %18 = alloca %class.anon.352, align 8
  %19 = alloca %class.anon.352, align 8
  store ptr %0, ptr %6, align 8
  store ptr %1, ptr %7, align 8
  store i32 %2, ptr %8, align 4
  store ptr %3, ptr %9, align 8
  store ptr %4, ptr %10, align 8
  %20 = load i32, ptr %8, align 4
  %21 = call noundef ptr @_ZN5clang10TargetInfo21getTypeFormatModifierENS_23TransferrableTargetInfo7IntTypeE(i32 noundef %20)
  call void @_ZN4llvm9StringRefC2EPKc(ptr noundef nonnull align 8 dereferenceable(16) %11, ptr noundef %21)
  %22 = getelementptr inbounds nuw %class.anon.352, ptr %12, i32 0, i32 0
  %23 = load ptr, ptr %10, align 8
  store ptr %23, ptr %22, align 8
  %24 = getelementptr inbounds nuw %class.anon.352, ptr %12, i32 0, i32 1
  %25 = load ptr, ptr %7, align 8
  store ptr %25, ptr %24, align 8
  %26 = getelementptr inbounds nuw %class.anon.352, ptr %12, i32 0, i32 2
  store ptr %11, ptr %26, align 8
  %27 = load i32, ptr %8, align 4
  %28 = call noundef zeroext i1 @_ZN5clang10TargetInfo12isTypeSignedENS_23TransferrableTargetInfo7IntTypeE(i32 noundef %27)
  %29 = zext i1 %28 to i8
  store i8 %29, ptr %13, align 1
  %30 = load i8, ptr %13, align 1
  %31 = trunc i8 %30 to i1
  %32 = select i1 %31, ptr @.str.442, ptr @.str.443
  call void @_ZN4llvm9StringRefC2EPKc(ptr noundef nonnull align 8 dereferenceable(16) %14, ptr noundef %32)
  call void @llvm.memcpy.p0.p0.i64(ptr align 8 %15, ptr align 8 %12, i64 24, i1 false)
  call void @"_ZN4llvm8for_eachINS_9StringRefEZL9DefineFmtRKN5clang11LangOptionsERKNS_5TwineENS2_23TransferrableTargetInfo7IntTypeERKNS2_10TargetInfoERNS2_12MacroBuilderEE3$_0EET0_OT_SH_"(ptr dead_on_unwind writable sret(%class.anon.352) align 8 %16, ptr noundef nonnull align 8 dereferenceable(16) %14, ptr noundef byval(%class.anon.352) align 8 %15)
  %33 = load ptr, ptr %6, align 8
  %34 = load i64, ptr %33, align 8
  %35 = lshr i64 %34, 3
  %36 = and i64 %35, 1
  %37 = trunc i64 %36 to i32
  %38 = icmp ne i32 %37, 0
  br i1 %38, label %39, label %43

39:                                               ; preds = %5
  %40 = load i8, ptr %13, align 1
  %41 = trunc i8 %40 to i1
  br i1 %41, label %43, label %42

42:                                               ; preds = %39
  call void @_ZN4llvm9StringRefC2EPKc(ptr noundef nonnull align 8 dereferenceable(16) %17, ptr noundef @.str.444)
  call void @llvm.memcpy.p0.p0.i64(ptr align 8 %18, ptr align 8 %12, i64 24, i1 false)
  call void @"_ZN4llvm8for_eachINS_9StringRefEZL9DefineFmtRKN5clang11LangOptionsERKNS_5TwineENS2_23TransferrableTargetInfo7IntTypeERKNS2_10TargetInfoERNS2_12MacroBuilderEE3$_0EET0_OT_SH_"(ptr dead_on_unwind writable sret(%class.anon.352) align 8 %19, ptr noundef nonnull align 8 dereferenceable(16) %17, ptr noundef byval(%class.anon.352) align 8 %18)
  br label %43

43:                                               ; preds = %42, %39, %5
  ret void
}