; Function Attrs: mustprogress nounwind uwtable
define internal fastcc void @_ZL9DefineFmtRKN5clang11LangOptionsERKN4llvm5TwineENS_23TransferrableTargetInfo7IntTypeERKNS_10TargetInfoERNS_12MacroBuilderE(ptr noundef nonnull readonly align 8 captures(none) dereferenceable(841) %0, ptr noundef nonnull align 8 dereferenceable(34) %1, i32 noundef %2, ptr noundef nonnull align 8 dereferenceable(8) %3) unnamed_addr #0 {
  %5 = alloca %"class.llvm::StringRef", align 8
  %6 = alloca %class.anon.352, align 8
  %7 = alloca %class.anon.352, align 8
  %8 = alloca %class.anon.352, align 8
  %9 = alloca %class.anon.352, align 8
  %10 = tail call noundef ptr @_ZN5clang10TargetInfo21getTypeFormatModifierENS_23TransferrableTargetInfo7IntTypeE(i32 noundef %2) #13
  store ptr %10, ptr %5, align 8
  %.not.i = icmp eq ptr %10, null
  br i1 %.not.i, label %_ZN4llvm9StringRefC2EPKc.exit, label %11

11:                                               ; preds = %4
  %12 = tail call noundef i64 @strlen(ptr noundef nonnull dereferenceable(1) %10) #13
  br label %_ZN4llvm9StringRefC2EPKc.exit

_ZN4llvm9StringRefC2EPKc.exit:                    ; preds = %4, %11
  %13 = phi i64 [ %12, %11 ], [ 0, %4 ]
  %14 = getelementptr inbounds nuw i8, ptr %5, i64 8
  store i64 %13, ptr %14, align 8
  %15 = tail call noundef zeroext i1 @_ZN5clang10TargetInfo12isTypeSignedENS_23TransferrableTargetInfo7IntTypeE(i32 noundef %2) #13
  %16 = select i1 %15, ptr @.str.442, ptr @.str.443
  %17 = select i1 %15, i64 2, i64 4
  store ptr %3, ptr %6, align 8
  %.sroa.3.0..sroa_idx = getelementptr inbounds nuw i8, ptr %6, i64 8
  store ptr %1, ptr %.sroa.3.0..sroa_idx, align 8
  %.sroa.4.0..sroa_idx = getelementptr inbounds nuw i8, ptr %6, i64 16
  store ptr %5, ptr %.sroa.4.0..sroa_idx, align 8
  call fastcc void @"_ZN4llvm8for_eachINS_9StringRefEZL9DefineFmtRKN5clang11LangOptionsERKNS_5TwineENS2_23TransferrableTargetInfo7IntTypeERKNS2_10TargetInfoERNS2_12MacroBuilderEE3$_0EET0_OT_SH_"(ptr dead_on_unwind noalias writable align 8 %7, ptr nonnull %16, i64 %17, ptr noundef nonnull byval(%class.anon.352) align 8 %6)
  %18 = load i64, ptr %0, align 8
  %19 = and i64 %18, 8
  %.not = icmp eq i64 %19, 0
  %brmerge = or i1 %15, %.not
  br i1 %brmerge, label %21, label %20

20:                                               ; preds = %_ZN4llvm9StringRefC2EPKc.exit
  store ptr %3, ptr %8, align 8
  %.sroa.3.0..sroa_idx3 = getelementptr inbounds nuw i8, ptr %8, i64 8
  store ptr %1, ptr %.sroa.3.0..sroa_idx3, align 8
  %.sroa.4.0..sroa_idx5 = getelementptr inbounds nuw i8, ptr %8, i64 16
  store ptr %5, ptr %.sroa.4.0..sroa_idx5, align 8
  call fastcc void @"_ZN4llvm8for_eachINS_9StringRefEZL9DefineFmtRKN5clang11LangOptionsERKNS_5TwineENS2_23TransferrableTargetInfo7IntTypeERKNS2_10TargetInfoERNS2_12MacroBuilderEE3$_0EET0_OT_SH_"(ptr dead_on_unwind noalias writable align 8 %9, ptr nonnull @.str.444, i64 2, ptr noundef nonnull byval(%class.anon.352) align 8 %8)
  br label %21

21:                                               ; preds = %_ZN4llvm9StringRefC2EPKc.exit, %20
  ret void
}